target datalayout = "e-m:e-p270:32:32-p271:32:32-p272:64:64-i64:64-i128:128-f80:128-n8:16:32:64-S128"
target triple = "x86_64-pc-linux-gnu"

%struct.AVFilterContext = type { ptr, ptr, ptr, ptr, ptr, i32, ptr, ptr, i32, ptr, ptr, i32, i32, ptr, ptr, ptr, ptr, i32, ptr, i32, i32 }
%struct.VAAPIVPPContext = type { ptr, ptr, ptr, i32, i32, i32, ptr, ptr, %struct._VARectangle, i32, i32, i32, [10 x i32], i32, i32, ptr, ptr }
%struct._VARectangle = type { i16, i16, i16, i16 }
%struct.ProcampVAAPIContext = type { %struct.VAAPIVPPContext, float, float, float, float }
%struct._VAProcFilterParameterBufferColorBalance = type { i32, i32, float, [4 x i32] }
%struct._VAProcFilterCapColorBalance = type { i32, %struct._VAProcFilterValueRange, [4 x i32] }
%struct._VAProcFilterValueRange = type { float, float, float, float, [4 x i32] }
%struct.AVVAAPIDeviceContext = type { ptr, i32 }

@.str.19 = private unnamed_addr constant [47 x i8] c"Failed to query procamp filter caps: %d (%s).\0A\00", align 1

; Function Attrs: nounwind uwtable
define internal float @map(float noundef %0, float noundef %1, float noundef %2, float noundef %3, float noundef %4) #2 {
  %6 = alloca float, align 4
  %7 = alloca float, align 4
  %8 = alloca float, align 4
  %9 = alloca float, align 4
  %10 = alloca float, align 4
  %11 = alloca double, align 8
  %12 = alloca double, align 8
  store float %0, ptr %6, align 4, !tbaa !26
  store float %1, ptr %7, align 4, !tbaa !26
  store float %2, ptr %8, align 4, !tbaa !26
  store float %3, ptr %9, align 4, !tbaa !26
  store float %4, ptr %10, align 4, !tbaa !26
  call void @llvm.lifetime.start.p0(i64 8, ptr %11) #6
  call void @llvm.lifetime.start.p0(i64 8, ptr %12) #6
  %13 = load float, ptr %10, align 4, !tbaa !26
  %14 = load float, ptr %9, align 4, !tbaa !26
  %15 = fsub nsz float %13, %14
  %16 = fpext nsz float %15 to double
  %17 = fmul nsz double 1.000000e+00, %16
  %18 = load float, ptr %8, align 4, !tbaa !26
  %19 = load float, ptr %7, align 4, !tbaa !26
  %20 = fsub nsz float %18, %19
  %21 = fpext nsz float %20 to double
  %22 = fdiv nsz double %17, %21
  store double %22, ptr %11, align 8, !tbaa !87
  %23 = load float, ptr %9, align 4, !tbaa !26
  %24 = fpext nsz float %23 to double
  %25 = load double, ptr %11, align 8, !tbaa !87
  %26 = load float, ptr %6, align 4, !tbaa !26
  %27 = load float, ptr %7, align 4, !tbaa !26
  %28 = fsub nsz float %26, %27
  %29 = fpext nsz float %28 to double
  %30 = call nsz double @llvm.fmuladd.f64(double %25, double %29, double %24)
  store double %30, ptr %12, align 8, !tbaa !87
  %31 = load double, ptr %12, align 8, !tbaa !87
  %32 = fptrunc nsz double %31 to float
  call void @llvm.lifetime.end.p0(i64 8, ptr %12) #6
  call void @llvm.lifetime.end.p0(i64 8, ptr %11) #6
  ret float %32
}

; Function Attrs: nounwind uwtable
define internal i32 @procamp_vaapi_build_filter_params(ptr noundef %0) #2 {
  %2 = alloca i32, align 4
  %3 = alloca ptr, align 8
  %4 = alloca ptr, align 8
  %5 = alloca ptr, align 8
  %6 = alloca i32, align 4
  %7 = alloca [4 x %struct._VAProcFilterParameterBufferColorBalance], align 16
  %8 = alloca [8 x %struct._VAProcFilterCapColorBalance], align 16
  %9 = alloca i32, align 4
  %10 = alloca i32, align 4
  %11 = alloca i32, align 4
  store ptr %0, ptr %3, align 8, !tbaa !4
  call void @llvm.lifetime.start.p0(i64 8, ptr %4) #6
  %12 = load ptr, ptr %3, align 8, !tbaa !4
  %13 = getelementptr inbounds nuw %struct.AVFilterContext, ptr %12, i32 0, i32 9
  %14 = load ptr, ptr %13, align 8, !tbaa !9
  store ptr %14, ptr %4, align 8, !tbaa !22
  call void @llvm.lifetime.start.p0(i64 8, ptr %5) #6
  %15 = load ptr, ptr %3, align 8, !tbaa !4
  %16 = getelementptr inbounds nuw %struct.AVFilterContext, ptr %15, i32 0, i32 9
  %17 = load ptr, ptr %16, align 8, !tbaa !9
  store ptr %17, ptr %5, align 8, !tbaa !24
  call void @llvm.lifetime.start.p0(i64 4, ptr %6) #6
  call void @llvm.lifetime.start.p0(i64 112, ptr %7) #6
  call void @llvm.lifetime.start.p0(i64 416, ptr %8) #6
  call void @llvm.lifetime.start.p0(i64 4, ptr %9) #6
  call void @llvm.lifetime.start.p0(i64 4, ptr %10) #6
  store i32 0, ptr %10, align 4, !tbaa !67
  call void @llvm.memset.p0.i64(ptr align 16 %7, i8 0, i64 112, i1 false)
  call void @llvm.memset.p0.i64(ptr align 16 %8, i8 0, i64 416, i1 false)
  store i32 8, ptr %9, align 4, !tbaa !67
  %18 = load ptr, ptr %4, align 8, !tbaa !22
  %19 = getelementptr inbounds nuw %struct.VAAPIVPPContext, ptr %18, i32 0, i32 1
  %20 = load ptr, ptr %19, align 8, !tbaa !76
  %21 = getelementptr inbounds nuw %struct.AVVAAPIDeviceContext, ptr %20, i32 0, i32 0
  %22 = load ptr, ptr %21, align 8, !tbaa !77
  %23 = load ptr, ptr %4, align 8, !tbaa !22
  %24 = getelementptr inbounds nuw %struct.VAAPIVPPContext, ptr %23, i32 0, i32 5
  %25 = load i32, ptr %24, align 8, !tbaa !64
  %26 = call i32 @vaQueryVideoProcFilterCaps(ptr noundef %22, i32 noundef %25, i32 noundef 4, ptr noundef %8, ptr noundef %9)
  store i32 %26, ptr %6, align 4, !tbaa !67
  %27 = load i32, ptr %6, align 4, !tbaa !67
  %28 = icmp ne i32 %27, 0
  br i1 %28, label %29, label %34

29:                                               ; preds = %1
  %30 = load ptr, ptr %3, align 8, !tbaa !4
  %31 = load i32, ptr %6, align 4, !tbaa !67
  %32 = load i32, ptr %6, align 4, !tbaa !67
  %33 = call ptr @vaErrorStr(i32 noundef %32)
  call void (ptr, i32, ptr, ...) @av_log(ptr noundef %30, i32 noundef 16, ptr noundef @.str.19, i32 noundef %31, ptr noundef %33)
  store i32 -5, ptr %2, align 4
  store i32 1, ptr %11, align 4
  br label %142

34:                                               ; preds = %1
  %35 = load i32, ptr %10, align 4, !tbaa !67
  %36 = sext i32 %35 to i64
  %37 = getelementptr inbounds [4 x %struct._VAProcFilterParameterBufferColorBalance], ptr %7, i64 0, i64 %36
  %38 = getelementptr inbounds nuw %struct._VAProcFilterParameterBufferColorBalance, ptr %37, i32 0, i32 0
  store i32 4, ptr %38, align 4, !tbaa !79
  %39 = load i32, ptr %10, align 4, !tbaa !67
  %40 = sext i32 %39 to i64
  %41 = getelementptr inbounds [4 x %struct._VAProcFilterParameterBufferColorBalance], ptr %7, i64 0, i64 %40
  %42 = getelementptr inbounds nuw %struct._VAProcFilterParameterBufferColorBalance, ptr %41, i32 0, i32 1
  store i32 3, ptr %42, align 4, !tbaa !81
  %43 = load ptr, ptr %5, align 8, !tbaa !24
  %44 = getelementptr inbounds nuw %struct.ProcampVAAPIContext, ptr %43, i32 0, i32 1
  %45 = load float, ptr %44, align 8, !tbaa !38
  %46 = getelementptr inbounds [8 x %struct._VAProcFilterCapColorBalance], ptr %8, i64 0, i64 2
  %47 = getelementptr inbounds nuw %struct._VAProcFilterCapColorBalance, ptr %46, i32 0, i32 1
  %48 = getelementptr inbounds nuw %struct._VAProcFilterValueRange, ptr %47, i32 0, i32 0
  %49 = load float, ptr %48, align 4, !tbaa !82
  %50 = getelementptr inbounds [8 x %struct._VAProcFilterCapColorBalance], ptr %8, i64 0, i64 2
  %51 = getelementptr inbounds nuw %struct._VAProcFilterCapColorBalance, ptr %50, i32 0, i32 1
  %52 = getelementptr inbounds nuw %struct._VAProcFilterValueRange, ptr %51, i32 0, i32 1
  %53 = load float, ptr %52, align 4, !tbaa !85
  %54 = call nsz float @map(float noundef %45, float noundef -1.000000e+02, float noundef 1.000000e+02, float noundef %49, float noundef %53)
  %55 = load i32, ptr %10, align 4, !tbaa !67
  %56 = sext i32 %55 to i64
  %57 = getelementptr inbounds [4 x %struct._VAProcFilterParameterBufferColorBalance], ptr %7, i64 0, i64 %56
  %58 = getelementptr inbounds nuw %struct._VAProcFilterParameterBufferColorBalance, ptr %57, i32 0, i32 2
  store float %54, ptr %58, align 4, !tbaa !86
  %59 = load i32, ptr %10, align 4, !tbaa !67
  %60 = add nsw i32 %59, 1
  store i32 %60, ptr %10, align 4, !tbaa !67
  %61 = load i32, ptr %10, align 4, !tbaa !67
  %62 = sext i32 %61 to i64
  %63 = getelementptr inbounds [4 x %struct._VAProcFilterParameterBufferColorBalance], ptr %7, i64 0, i64 %62
  %64 = getelementptr inbounds nuw %struct._VAProcFilterParameterBufferColorBalance, ptr %63, i32 0, i32 0
  store i32 4, ptr %64, align 4, !tbaa !79
  %65 = load i32, ptr %10, align 4, !tbaa !67
  %66 = sext i32 %65 to i64
  %67 = getelementptr inbounds [4 x %struct._VAProcFilterParameterBufferColorBalance], ptr %7, i64 0, i64 %66
  %68 = getelementptr inbounds nuw %struct._VAProcFilterParameterBufferColorBalance, ptr %67, i32 0, i32 1
  store i32 4, ptr %68, align 4, !tbaa !81
  %69 = load ptr, ptr %5, align 8, !tbaa !24
  %70 = getelementptr inbounds nuw %struct.ProcampVAAPIContext, ptr %69, i32 0, i32 4
  %71 = load float, ptr %70, align 4, !tbaa !39
  %72 = getelementptr inbounds [8 x %struct._VAProcFilterCapColorBalance], ptr %8, i64 0, i64 3
  %73 = getelementptr inbounds nuw %struct._VAProcFilterCapColorBalance, ptr %72, i32 0, i32 1
  %74 = getelementptr inbounds nuw %struct._VAProcFilterValueRange, ptr %73, i32 0, i32 0
  %75 = load float, ptr %74, align 4, !tbaa !82
  %76 = getelementptr inbounds [8 x %struct._VAProcFilterCapColorBalance], ptr %8, i64 0, i64 3
  %77 = getelementptr inbounds nuw %struct._VAProcFilterCapColorBalance, ptr %76, i32 0, i32 1
  %78 = getelementptr inbounds nuw %struct._VAProcFilterValueRange, ptr %77, i32 0, i32 1
  %79 = load float, ptr %78, align 4, !tbaa !85
  %80 = call nsz float @map(float noundef %71, float noundef 0.000000e+00, float noundef 1.000000e+01, float noundef %75, float noundef %79)
  %81 = load i32, ptr %10, align 4, !tbaa !67
  %82 = sext i32 %81 to i64
  %83 = getelementptr inbounds [4 x %struct._VAProcFilterParameterBufferColorBalance], ptr %7, i64 0, i64 %82
  %84 = getelementptr inbounds nuw %struct._VAProcFilterParameterBufferColorBalance, ptr %83, i32 0, i32 2
  store float %80, ptr %84, align 4, !tbaa !86
  %85 = load i32, ptr %10, align 4, !tbaa !67
  %86 = add nsw i32 %85, 1
  store i32 %86, ptr %10, align 4, !tbaa !67
  %87 = load i32, ptr %10, align 4, !tbaa !67
  %88 = sext i32 %87 to i64
  %89 = getelementptr inbounds [4 x %struct._VAProcFilterParameterBufferColorBalance], ptr %7, i64 0, i64 %88
  %90 = getelementptr inbounds nuw %struct._VAProcFilterParameterBufferColorBalance, ptr %89, i32 0, i32 0
  store i32 4, ptr %90, align 4, !tbaa !79
  %91 = load i32, ptr %10, align 4, !tbaa !67
  %92 = sext i32 %91 to i64
  %93 = getelementptr inbounds [4 x %struct._VAProcFilterParameterBufferColorBalance], ptr %7, i64 0, i64 %92
  %94 = getelementptr inbounds nuw %struct._VAProcFilterParameterBufferColorBalance, ptr %93, i32 0, i32 1
  store i32 1, ptr %94, align 4, !tbaa !81
  %95 = load ptr, ptr %5, align 8, !tbaa !24
  %96 = getelementptr inbounds nuw %struct.ProcampVAAPIContext, ptr %95, i32 0, i32 2
  %97 = load float, ptr %96, align 4, !tbaa !40
  %98 = getelementptr inbounds [8 x %struct._VAProcFilterCapColorBalance], ptr %8, i64 0, i64 0
  %99 = getelementptr inbounds nuw %struct._VAProcFilterCapColorBalance, ptr %98, i32 0, i32 1
  %100 = getelementptr inbounds nuw %struct._VAProcFilterValueRange, ptr %99, i32 0, i32 0
  %101 = load float, ptr %100, align 4, !tbaa !82
  %102 = getelementptr inbounds [8 x %struct._VAProcFilterCapColorBalance], ptr %8, i64 0, i64 0
  %103 = getelementptr inbounds nuw %struct._VAProcFilterCapColorBalance, ptr %102, i32 0, i32 1
  %104 = getelementptr inbounds nuw %struct._VAProcFilterValueRange, ptr %103, i32 0, i32 1
  %105 = load float, ptr %104, align 4, !tbaa !85
  %106 = call nsz float @map(float noundef %97, float noundef -1.800000e+02, float noundef 1.800000e+02, float noundef %101, float noundef %105)
  %107 = load i32, ptr %10, align 4, !tbaa !67
  %108 = sext i32 %107 to i64
  %109 = getelementptr inbounds [4 x %struct._VAProcFilterParameterBufferColorBalance], ptr %7, i64 0, i64 %108
  %110 = getelementptr inbounds nuw %struct._VAProcFilterParameterBufferColorBalance, ptr %109, i32 0, i32 2
  store float %106, ptr %110, align 4, !tbaa !86
  %111 = load i32, ptr %10, align 4, !tbaa !67
  %112 = add nsw i32 %111, 1
  store i32 %112, ptr %10, align 4, !tbaa !67
  %113 = load i32, ptr %10, align 4, !tbaa !67
  %114 = sext i32 %113 to i64
  %115 = getelementptr inbounds [4 x %struct._VAProcFilterParameterBufferColorBalance], ptr %7, i64 0, i64 %114
  %116 = getelementptr inbounds nuw %struct._VAProcFilterParameterBufferColorBalance, ptr %115, i32 0, i32 0
  store i32 4, ptr %116, align 4, !tbaa !79
  %117 = load i32, ptr %10, align 4, !tbaa !67
  %118 = sext i32 %117 to i64
  %119 = getelementptr inbounds [4 x %struct._VAProcFilterParameterBufferColorBalance], ptr %7, i64 0, i64 %118
  %120 = getelementptr inbounds nuw %struct._VAProcFilterParameterBufferColorBalance, ptr %119, i32 0, i32 1
  store i32 2, ptr %120, align 4, !tbaa !81
  %121 = load ptr, ptr %5, align 8, !tbaa !24
  %122 = getelementptr inbounds nuw %struct.ProcampVAAPIContext, ptr %121, i32 0, i32 3
  %123 = load float, ptr %122, align 8, !tbaa !36
  %124 = getelementptr inbounds [8 x %struct._VAProcFilterCapColorBalance], ptr %8, i64 0, i64 1
  %125 = getelementptr inbounds nuw %struct._VAProcFilterCapColorBalance, ptr %124, i32 0, i32 1
  %126 = getelementptr inbounds nuw %struct._VAProcFilterValueRange, ptr %125, i32 0, i32 0
  %127 = load float, ptr %126, align 4, !tbaa !82
  %128 = getelementptr inbounds [8 x %struct._VAProcFilterCapColorBalance], ptr %8, i64 0, i64 1
  %129 = getelementptr inbounds nuw %struct._VAProcFilterCapColorBalance, ptr %128, i32 0, i32 1
  %130 = getelementptr inbounds nuw %struct._VAProcFilterValueRange, ptr %129, i32 0, i32 1
  %131 = load float, ptr %130, align 4, !tbaa !85
  %132 = call nsz float @map(float noundef %123, float noundef 0.000000e+00, float noundef 1.000000e+01, float noundef %127, float noundef %131)
  %133 = load i32, ptr %10, align 4, !tbaa !67
  %134 = sext i32 %133 to i64
  %135 = getelementptr inbounds [4 x %struct._VAProcFilterParameterBufferColorBalance], ptr %7, i64 0, i64 %134
  %136 = getelementptr inbounds nuw %struct._VAProcFilterParameterBufferColorBalance, ptr %135, i32 0, i32 2
  store float %132, ptr %136, align 4, !tbaa !86
  %137 = load i32, ptr %10, align 4, !tbaa !67
  %138 = add nsw i32 %137, 1
  store i32 %138, ptr %10, align 4, !tbaa !67
  %139 = load ptr, ptr %3, align 8, !tbaa !4
  %140 = load i32, ptr %10, align 4, !tbaa !67
  %141 = call i32 @ff_vaapi_vpp_make_param_buffers(ptr noundef %139, i32 noundef 42, ptr noundef %7, i64 noundef 28, i32 noundef %140)
  store i32 %141, ptr %2, align 4
  store i32 1, ptr %11, align 4
  br label %142

142:                                              ; preds = %34, %29
  call void @llvm.lifetime.end.p0(i64 4, ptr %10) #6
  call void @llvm.lifetime.end.p0(i64 4, ptr %9) #6
  call void @llvm.lifetime.end.p0(i64 416, ptr %8) #6
  call void @llvm.lifetime.end.p0(i64 112, ptr %7) #6
  call void @llvm.lifetime.end.p0(i64 4, ptr %6) #6
  call void @llvm.lifetime.end.p0(i64 8, ptr %5) #6
  call void @llvm.lifetime.end.p0(i64 8, ptr %4) #6
  %143 = load i32, ptr %2, align 4
  ret i32 %143
}