; Function Attrs: nounwind uwtable
define internal i32 @procamp_vaapi_build_filter_params(ptr noundef %0) #2 {
  %2 = alloca [4 x %struct._VAProcFilterParameterBufferColorBalance], align 16
  %3 = alloca [8 x %struct._VAProcFilterCapColorBalance], align 16
  %4 = alloca i32, align 4
  %5 = getelementptr inbounds nuw i8, ptr %0, i64 72
  %6 = load ptr, ptr %5, align 8, !tbaa !4
  call void @llvm.lifetime.start.p0(i64 112, ptr nonnull %2) #7
  call void @llvm.lifetime.start.p0(i64 416, ptr nonnull %3) #7
  call void @llvm.lifetime.start.p0(i64 4, ptr nonnull %4) #7
  call void @llvm.memset.p0.i64(ptr noundef nonnull align 16 dereferenceable(112) %2, i8 0, i64 112, i1 false)
  call void @llvm.memset.p0.i64(ptr noundef nonnull align 16 dereferenceable(416) %3, i8 0, i64 416, i1 false)
  store i32 8, ptr %4, align 4, !tbaa !69
  %7 = getelementptr inbounds nuw i8, ptr %6, i64 8
  %8 = load ptr, ptr %7, align 8, !tbaa !70
  %9 = load ptr, ptr %8, align 8, !tbaa !71
  %10 = getelementptr inbounds nuw i8, ptr %6, i64 32
  %11 = load i32, ptr %10, align 8, !tbaa !58
  %12 = call i32 @vaQueryVideoProcFilterCaps(ptr noundef %9, i32 noundef %11, i32 noundef 4, ptr noundef nonnull %3, ptr noundef nonnull %4) #7
  %.not = icmp eq i32 %12, 0
  br i1 %.not, label %15, label %13

13:                                               ; preds = %1
  %14 = call ptr @vaErrorStr(i32 noundef %12) #7
  call void (ptr, i32, ptr, ...) @av_log(ptr noundef nonnull %0, i32 noundef 16, ptr noundef nonnull @.str.19, i32 noundef %12, ptr noundef %14) #7
  br label %82

15:                                               ; preds = %1
  store i32 4, ptr %2, align 16, !tbaa !73
  %16 = getelementptr inbounds nuw i8, ptr %2, i64 4
  store i32 3, ptr %16, align 4, !tbaa !75
  %17 = getelementptr inbounds nuw i8, ptr %6, i64 144
  %18 = load float, ptr %17, align 8, !tbaa !31
  %19 = getelementptr inbounds nuw i8, ptr %3, i64 108
  %20 = load float, ptr %19, align 4, !tbaa !76
  %21 = getelementptr inbounds nuw i8, ptr %3, i64 112
  %22 = load float, ptr %21, align 16, !tbaa !79
  %23 = fsub nsz float %22, %20
  %24 = fpext nsz float %23 to double
  %25 = fdiv nsz double %24, 2.000000e+02
  %26 = fpext nsz float %20 to double
  %27 = fadd nsz float %18, 1.000000e+02
  %28 = fpext nsz float %27 to double
  %29 = call nsz double @llvm.fmuladd.f64(double %25, double %28, double %26)
  %30 = fptrunc nsz double %29 to float
  %31 = getelementptr inbounds nuw i8, ptr %2, i64 8
  store float %30, ptr %31, align 8, !tbaa !80
  %32 = getelementptr inbounds nuw i8, ptr %2, i64 28
  store i32 4, ptr %32, align 4, !tbaa !73
  %33 = getelementptr inbounds nuw i8, ptr %2, i64 32
  store i32 4, ptr %33, align 16, !tbaa !75
  %34 = getelementptr inbounds nuw i8, ptr %6, i64 156
  %35 = load float, ptr %34, align 4, !tbaa !32
  %36 = getelementptr inbounds nuw i8, ptr %3, i64 160
  %37 = load float, ptr %36, align 16, !tbaa !76
  %38 = getelementptr inbounds nuw i8, ptr %3, i64 164
  %39 = load float, ptr %38, align 4, !tbaa !79
  %40 = fsub nsz float %39, %37
  %41 = fpext nsz float %40 to double
  %42 = fdiv nsz double %41, 1.000000e+01
  %43 = fpext nsz float %37 to double
  %44 = fpext nsz float %35 to double
  %45 = call nsz double @llvm.fmuladd.f64(double %42, double %44, double %43)
  %46 = fptrunc nsz double %45 to float
  %47 = getelementptr inbounds nuw i8, ptr %2, i64 36
  store float %46, ptr %47, align 4, !tbaa !80
  %48 = getelementptr inbounds nuw i8, ptr %2, i64 56
  store i32 4, ptr %48, align 8, !tbaa !73
  %49 = getelementptr inbounds nuw i8, ptr %2, i64 60
  store i32 1, ptr %49, align 4, !tbaa !75
  %50 = getelementptr inbounds nuw i8, ptr %6, i64 148
  %51 = load float, ptr %50, align 4, !tbaa !33
  %52 = getelementptr inbounds nuw i8, ptr %3, i64 4
  %53 = load float, ptr %52, align 4, !tbaa !76
  %54 = getelementptr inbounds nuw i8, ptr %3, i64 8
  %55 = load float, ptr %54, align 8, !tbaa !79
  %56 = fsub nsz float %55, %53
  %57 = fpext nsz float %56 to double
  %58 = fdiv nsz double %57, 3.600000e+02
  %59 = fpext nsz float %53 to double
  %60 = fadd nsz float %51, 1.800000e+02
  %61 = fpext nsz float %60 to double
  %62 = call nsz double @llvm.fmuladd.f64(double %58, double %61, double %59)
  %63 = fptrunc nsz double %62 to float
  %64 = getelementptr inbounds nuw i8, ptr %2, i64 64
  store float %63, ptr %64, align 16, !tbaa !80
  %65 = getelementptr inbounds nuw i8, ptr %2, i64 84
  store i32 4, ptr %65, align 4, !tbaa !73
  %66 = getelementptr inbounds nuw i8, ptr %2, i64 88
  store i32 2, ptr %66, align 8, !tbaa !75
  %67 = getelementptr inbounds nuw i8, ptr %6, i64 152
  %68 = load float, ptr %67, align 8, !tbaa !28
  %69 = getelementptr inbounds nuw i8, ptr %3, i64 56
  %70 = load float, ptr %69, align 8, !tbaa !76
  %71 = getelementptr inbounds nuw i8, ptr %3, i64 60
  %72 = load float, ptr %71, align 4, !tbaa !79
  %73 = fsub nsz float %72, %70
  %74 = fpext nsz float %73 to double
  %75 = fdiv nsz double %74, 1.000000e+01
  %76 = fpext nsz float %70 to double
  %77 = fpext nsz float %68 to double
  %78 = call nsz double @llvm.fmuladd.f64(double %75, double %77, double %76)
  %79 = fptrunc nsz double %78 to float
  %80 = getelementptr inbounds nuw i8, ptr %2, i64 92
  store float %79, ptr %80, align 4, !tbaa !80
  %81 = call i32 @ff_vaapi_vpp_make_param_buffers(ptr noundef nonnull %0, i32 noundef 42, ptr noundef nonnull %2, i64 noundef 28, i32 noundef 4) #7
  br label %82

82:                                               ; preds = %15, %13
  %.0 = phi i32 [ -5, %13 ], [ %81, %15 ]
  call void @llvm.lifetime.end.p0(i64 4, ptr nonnull %4) #7
  call void @llvm.lifetime.end.p0(i64 416, ptr nonnull %3) #7
  call void @llvm.lifetime.end.p0(i64 112, ptr nonnull %2) #7
  ret i32 %.0
}